ccopy_reg
_reconstructor
p0
(cdedupe.datamodel
DataModel
p1
c__builtin__
object
p2
Ntp3
Rp4
(dp5
S'primary_fields'
p6
(lp7
g0
(cdedupe.variables.string
StringType
p8
g2
Ntp9
Rp10
(dp11
S'predicates'
p12
(lp13
g0
(cdedupe.predicates
StringPredicate
p14
g2
Ntp15
Rp16
(dp17
S'_cached_hash'
p18
I-802305281
sS'__name__'
p19
V(wholeFieldPredicate, schema:name)
p20
sS'func'
p21
cdedupe.predicates
wholeFieldPredicate
p22
sS'field'
p23
Vschema:name
p24
sbag0
(g14
g2
Ntp25
Rp26
(dp27
g18
I-467108059
sg19
V(firstTokenPredicate, schema:name)
p28
sg21
cdedupe.predicates
firstTokenPredicate
p29
sg23
g24
sbag0
(g14
g2
Ntp30
Rp31
(dp32
g18
I1723605384
sg19
V(commonIntegerPredicate, schema:name)
p33
sg21
cdedupe.predicates
commonIntegerPredicate
p34
sg23
g24
sbag0
(g14
g2
Ntp35
Rp36
(dp37
g18
I-370877559
sg19
V(nearIntegersPredicate, schema:name)
p38
sg21
cdedupe.predicates
nearIntegersPredicate
p39
sg23
g24
sbag0
(g14
g2
Ntp40
Rp41
(dp42
g18
I-1698475352
sg19
V(firstIntegerPredicate, schema:name)
p43
sg21
cdedupe.predicates
firstIntegerPredicate
p44
sg23
g24
sbag0
(g14
g2
Ntp45
Rp46
(dp47
g18
I1655940220
sg19
V(sameThreeCharStartPredicate, schema:name)
p48
sg21
cdedupe.predicates
sameThreeCharStartPredicate
p49
sg23
g24
sbag0
(g14
g2
Ntp50
Rp51
(dp52
g18
I818909831
sg19
V(sameFiveCharStartPredicate, schema:name)
p53
sg21
cdedupe.predicates
sameFiveCharStartPredicate
p54
sg23
g24
sbag0
(g14
g2
Ntp55
Rp56
(dp57
g18
I-544444305
sg19
V(sameSevenCharStartPredicate, schema:name)
p58
sg21
cdedupe.predicates
sameSevenCharStartPredicate
p59
sg23
g24
sbag0
(g14
g2
Ntp60
Rp61
(dp62
g18
I1098681744
sg19
V(commonTwoTokens, schema:name)
p63
sg21
cdedupe.predicates
commonTwoTokens
p64
sg23
g24
sbag0
(g14
g2
Ntp65
Rp66
(dp67
g18
I-1449687020
sg19
V(commonThreeTokens, schema:name)
p68
sg21
cdedupe.predicates
commonThreeTokens
p69
sg23
g24
sbag0
(g14
g2
Ntp70
Rp71
(dp72
g18
I-1623888691
sg19
V(fingerprint, schema:name)
p73
sg21
cdedupe.predicates
fingerprint
p74
sg23
g24
sbag0
(g14
g2
Ntp75
Rp76
(dp77
g18
I-201009523
sg19
V(oneGramFingerprint, schema:name)
p78
sg21
cdedupe.predicates
oneGramFingerprint
p79
sg23
g24
sbag0
(g14
g2
Ntp80
Rp81
(dp82
g18
I1718085131
sg19
V(twoGramFingerprint, schema:name)
p83
sg21
cdedupe.predicates
twoGramFingerprint
p84
sg23
g24
sbag0
(g14
g2
Ntp85
Rp86
(dp87
g18
I-1380848499
sg19
V(sortedAcronym, schema:name)
p88
sg21
cdedupe.predicates
sortedAcronym
p89
sg23
g24
sbag0
(g14
g2
Ntp90
Rp91
(dp92
g18
I1547766696
sg19
V(commonFourGram, schema:name)
p93
sg21
cdedupe.predicates
commonFourGram
p94
sg23
g24
sbag0
(g14
g2
Ntp95
Rp96
(dp97
g18
I6361515
sg19
V(commonSixGram, schema:name)
p98
sg21
cdedupe.predicates
commonSixGram
p99
sg23
g24
sbag0
(g14
g2
Ntp100
Rp101
(dp102
g18
I1047596325
sg19
V(tokenFieldPredicate, schema:name)
p103
sg21
cdedupe.predicates
tokenFieldPredicate
p104
sg23
g24
sbag0
(g14
g2
Ntp105
Rp106
(dp107
g18
I-469218345
sg19
V(suffixArray, schema:name)
p108
sg21
cdedupe.predicates
suffixArray
p109
sg23
g24
sbag0
(g14
g2
Ntp110
Rp111
(dp112
g18
I1598103165
sg19
V(doubleMetaphone, schema:name)
p113
sg21
cdedupe.predicates
doubleMetaphone
p114
sg23
g24
sbag0
(g14
g2
Ntp115
Rp116
(dp117
g18
I-2029605906
sg19
V(metaphoneToken, schema:name)
p118
sg21
cdedupe.predicates
metaphoneToken
p119
sg23
g24
sbag0
(cdedupe.predicates
TfidfNGramCanopyPredicate
p120
g2
Ntp121
Rp122
(dp123
S'threshold'
p124
F0.2
sg19
V(0.2, schema:name)
p125
sg23
g24
sbag0
(g120
g2
Ntp126
Rp127
(dp128
g124
F0.4
sg19
V(0.4, schema:name)
p129
sg23
g24
sbag0
(g120
g2
Ntp130
Rp131
(dp132
g124
F0.6
sg19
V(0.6, schema:name)
p133
sg23
g24
sbag0
(g120
g2
Ntp134
Rp135
(dp136
g124
F0.8
sg19
V(0.8, schema:name)
p137
sg23
g24
sbag0
(cdedupe.predicates
TfidfNGramSearchPredicate
p138
g2
Ntp139
Rp140
(dp141
g124
F0.2
sg19
V(0.2, schema:name)
p142
sg23
g24
sbag0
(g138
g2
Ntp143
Rp144
(dp145
g124
F0.4
sg19
V(0.4, schema:name)
p146
sg23
g24
sbag0
(g138
g2
Ntp147
Rp148
(dp149
g124
F0.6
sg19
V(0.6, schema:name)
p150
sg23
g24
sbag0
(g138
g2
Ntp151
Rp152
(dp153
g124
F0.8
sg19
V(0.8, schema:name)
p154
sg23
g24
sbag0
(cdedupe.predicates
TfidfTextCanopyPredicate
p155
g2
Ntp156
Rp157
(dp158
g124
F0.2
sg19
V(0.2, schema:name)
p159
sg23
g24
sbag0
(g155
g2
Ntp160
Rp161
(dp162
g124
F0.4
sg19
V(0.4, schema:name)
p163
sg23
g24
sbag0
(g155
g2
Ntp164
Rp165
(dp166
g124
F0.6
sg19
V(0.6, schema:name)
p167
sg23
g24
sbag0
(g155
g2
Ntp168
Rp169
(dp170
g124
F0.8
sg19
V(0.8, schema:name)
p171
sg23
g24
sbag0
(cdedupe.predicates
TfidfTextSearchPredicate
p172
g2
Ntp173
Rp174
(dp175
g124
F0.2
sg19
V(0.2, schema:name)
p176
sg23
g24
sbag0
(g172
g2
Ntp177
Rp178
(dp179
g124
F0.4
sg19
V(0.4, schema:name)
p180
sg23
g24
sbag0
(g172
g2
Ntp181
Rp182
(dp183
g124
F0.6
sg19
V(0.6, schema:name)
p184
sg23
g24
sbag0
(g172
g2
Ntp185
Rp186
(dp187
g124
F0.8
sg19
V(0.8, schema:name)
p188
sg23
g24
sbasg23
g24
sS'name'
p189
V(schema:name: String)
p190
sS'has_missing'
p191
I00
sS'comparator'
p192
caffinegap.affinegap
normalizedAffineGapDistance
p193
sbag0
(cdedupe.variables.string
ShortStringType
p194
g2
Ntp195
Rp196
(dp197
g12
(lp198
g0
(g14
g2
Ntp199
Rp200
(dp201
g18
I1475190086
sg19
V(wholeFieldPredicate, schema:birthDate)
p202
sg21
g22
sg23
Vschema:birthDate
p203
sbag0
(g14
g2
Ntp204
Rp205
(dp206
g18
I114264352
sg19
V(firstTokenPredicate, schema:birthDate)
p207
sg21
g29
sg23
g203
sbag0
(g14
g2
Ntp208
Rp209
(dp210
g18
I303448971
sg19
V(commonIntegerPredicate, schema:birthDate)
p211
sg21
g34
sg23
g203
sbag0
(g14
g2
Ntp212
Rp213
(dp214
g18
I1849882388
sg19
V(nearIntegersPredicate, schema:birthDate)
p215
sg21
g39
sg23
g203
sbag0
(g14
g2
Ntp216
Rp217
(dp218
g18
I-2062218341
sg19
V(firstIntegerPredicate, schema:birthDate)
p219
sg21
g44
sg23
g203
sbag0
(g14
g2
Ntp220
Rp221
(dp222
g18
I-1745665605
sg19
V(sameThreeCharStartPredicate, schema:birthDate)
p223
sg21
g49
sg23
g203
sbag0
(g14
g2
Ntp224
Rp225
(dp226
g18
I1483596350
sg19
V(sameFiveCharStartPredicate, schema:birthDate)
p227
sg21
g54
sg23
g203
sbag0
(g14
g2
Ntp228
Rp229
(dp230
g18
I-818824554
sg19
V(sameSevenCharStartPredicate, schema:birthDate)
p231
sg21
g59
sg23
g203
sbag0
(g14
g2
Ntp232
Rp233
(dp234
g18
I1770857079
sg19
V(commonTwoTokens, schema:birthDate)
p235
sg21
g64
sg23
g203
sbag0
(g14
g2
Ntp236
Rp237
(dp238
g18
I1915778127
sg19
V(commonThreeTokens, schema:birthDate)
p239
sg21
g69
sg23
g203
sbag0
(g14
g2
Ntp240
Rp241
(dp242
g18
I-762953320
sg19
V(fingerprint, schema:birthDate)
p243
sg21
g74
sg23
g203
sbag0
(g14
g2
Ntp244
Rp245
(dp246
g18
I-1629246092
sg19
V(oneGramFingerprint, schema:birthDate)
p247
sg21
g79
sg23
g203
sbag0
(g14
g2
Ntp248
Rp249
(dp250
g18
I-872923734
sg19
V(twoGramFingerprint, schema:birthDate)
p251
sg21
g84
sg23
g203
sbag0
(g14
g2
Ntp252
Rp253
(dp254
g18
I-1193303280
sg19
V(sortedAcronym, schema:birthDate)
p255
sg21
g89
sg23
g203
sbag0
(g14
g2
Ntp256
Rp257
(dp258
g18
I-1530170437
sg19
V(commonFourGram, schema:birthDate)
p259
sg21
g94
sg23
g203
sbag0
(g14
g2
Ntp260
Rp261
(dp262
g18
I-1488149062
sg19
V(commonSixGram, schema:birthDate)
p263
sg21
g99
sg23
g203
sbag0
(g14
g2
Ntp264
Rp265
(dp266
g18
I1088672544
sg19
V(tokenFieldPredicate, schema:birthDate)
p267
sg21
g104
sg23
g203
sbag0
(g14
g2
Ntp268
Rp269
(dp270
g18
I311237470
sg19
V(suffixArray, schema:birthDate)
p271
sg21
g109
sg23
g203
sbag0
(g14
g2
Ntp272
Rp273
(dp274
g18
I405008032
sg19
V(doubleMetaphone, schema:birthDate)
p275
sg21
g114
sg23
g203
sbag0
(g14
g2
Ntp276
Rp277
(dp278
g18
I-1147563215
sg19
V(metaphoneToken, schema:birthDate)
p279
sg21
g119
sg23
g203
sbag0
(g120
g2
Ntp280
Rp281
(dp282
g124
F0.2
sg19
V(0.2, schema:birthDate)
p283
sg23
g203
sbag0
(g120
g2
Ntp284
Rp285
(dp286
g124
F0.4
sg19
V(0.4, schema:birthDate)
p287
sg23
g203
sbag0
(g120
g2
Ntp288
Rp289
(dp290
g124
F0.6
sg19
V(0.6, schema:birthDate)
p291
sg23
g203
sbag0
(g120
g2
Ntp292
Rp293
(dp294
g124
F0.8
sg19
V(0.8, schema:birthDate)
p295
sg23
g203
sbag0
(g138
g2
Ntp296
Rp297
(dp298
g124
F0.2
sg19
V(0.2, schema:birthDate)
p299
sg23
g203
sbag0
(g138
g2
Ntp300
Rp301
(dp302
g124
F0.4
sg19
V(0.4, schema:birthDate)
p303
sg23
g203
sbag0
(g138
g2
Ntp304
Rp305
(dp306
g124
F0.6
sg19
V(0.6, schema:birthDate)
p307
sg23
g203
sbag0
(g138
g2
Ntp308
Rp309
(dp310
g124
F0.8
sg19
V(0.8, schema:birthDate)
p311
sg23
g203
sbag0
(cdedupe.predicates
ExistsPredicate
p312
g2
Ntp313
Rp314
(dp315
g18
I1884689899
sg19
V(Exists, schema:birthDate)
p316
sg23
g203
sbasg23
g203
sg189
V(schema:birthDate: ShortString)
p317
sg191
I01
sg192
g193
sbag0
(g194
g2
Ntp318
Rp319
(dp320
g12
(lp321
g0
(g14
g2
Ntp322
Rp323
(dp324
g18
I1453546865
sg19
V(wholeFieldPredicate, schema:deathDate)
p325
sg21
g22
sg23
Vschema:deathDate
p326
sbag0
(g14
g2
Ntp327
Rp328
(dp329
g18
I1716675315
sg19
V(firstTokenPredicate, schema:deathDate)
p330
sg21
g29
sg23
g326
sbag0
(g14
g2
Ntp331
Rp332
(dp333
g18
I2044718152
sg19
V(commonIntegerPredicate, schema:deathDate)
p334
sg21
g34
sg23
g326
sbag0
(g14
g2
Ntp335
Rp336
(dp337
g18
I-788235357
sg19
V(nearIntegersPredicate, schema:deathDate)
p338
sg21
g39
sg23
g326
sbag0
(g14
g2
Ntp339
Rp340
(dp341
g18
I-640008580
sg19
V(firstIntegerPredicate, schema:deathDate)
p342
sg21
g44
sg23
g326
sbag0
(g14
g2
Ntp343
Rp344
(dp345
g18
I911410464
sg19
V(sameThreeCharStartPredicate, schema:deathDate)
p346
sg21
g49
sg23
g326
sbag0
(g14
g2
Ntp347
Rp348
(dp349
g18
I1491954585
sg19
V(sameFiveCharStartPredicate, schema:deathDate)
p350
sg21
g54
sg23
g326
sbag0
(g14
g2
Ntp351
Rp352
(dp353
g18
I156440849
sg19
V(sameSevenCharStartPredicate, schema:deathDate)
p354
sg21
g59
sg23
g326
sbag0
(g14
g2
Ntp355
Rp356
(dp357
g18
I1033520108
sg19
V(commonTwoTokens, schema:deathDate)
p358
sg21
g64
sg23
g326
sbag0
(g14
g2
Ntp359
Rp360
(dp361
g18
I-1168770856
sg19
V(commonThreeTokens, schema:deathDate)
p362
sg21
g69
sg23
g326
sbag0
(g14
g2
Ntp363
Rp364
(dp365
g18
I-141876917
sg19
V(fingerprint, schema:deathDate)
p366
sg21
g74
sg23
g326
sbag0
(g14
g2
Ntp367
Rp368
(dp369
g18
I1928384239
sg19
V(oneGramFingerprint, schema:deathDate)
p370
sg21
g79
sg23
g326
sbag0
(g14
g2
Ntp371
Rp372
(dp373
g18
I518883813
sg19
V(twoGramFingerprint, schema:deathDate)
p374
sg21
g84
sg23
g326
sbag0
(g14
g2
Ntp375
Rp376
(dp377
g18
I-987703697
sg19
V(sortedAcronym, schema:deathDate)
p378
sg21
g89
sg23
g326
sbag0
(g14
g2
Ntp379
Rp380
(dp381
g18
I-529519384
sg19
V(commonFourGram, schema:deathDate)
p382
sg21
g94
sg23
g326
sbag0
(g14
g2
Ntp383
Rp384
(dp385
g18
I-487498007
sg19
V(commonSixGram, schema:deathDate)
p386
sg21
g99
sg23
g326
sbag0
(g14
g2
Ntp387
Rp388
(dp389
g18
I-1603883789
sg19
V(tokenFieldPredicate, schema:deathDate)
p390
sg21
g104
sg23
g326
sbag0
(g14
g2
Ntp391
Rp392
(dp393
g18
I-476227863
sg19
V(suffixArray, schema:deathDate)
p394
sg21
g109
sg23
g326
sbag0
(g14
g2
Ntp395
Rp396
(dp397
g18
I-659930573
sg19
V(doubleMetaphone, schema:deathDate)
p398
sg21
g114
sg23
g326
sbag0
(g14
g2
Ntp399
Rp400
(dp401
g18
I826420238
sg19
V(metaphoneToken, schema:deathDate)
p402
sg21
g119
sg23
g326
sbag0
(g120
g2
Ntp403
Rp404
(dp405
g124
F0.2
sg19
V(0.2, schema:deathDate)
p406
sg23
g326
sbag0
(g120
g2
Ntp407
Rp408
(dp409
g124
F0.4
sg19
V(0.4, schema:deathDate)
p410
sg23
g326
sbag0
(g120
g2
Ntp411
Rp412
(dp413
g124
F0.6
sg19
V(0.6, schema:deathDate)
p414
sg23
g326
sbag0
(g120
g2
Ntp415
Rp416
(dp417
g124
F0.8
sg19
V(0.8, schema:deathDate)
p418
sg23
g326
sbag0
(g138
g2
Ntp419
Rp420
(dp421
g124
F0.2
sg19
V(0.2, schema:deathDate)
p422
sg23
g326
sbag0
(g138
g2
Ntp423
Rp424
(dp425
g124
F0.4
sg19
V(0.4, schema:deathDate)
p426
sg23
g326
sbag0
(g138
g2
Ntp427
Rp428
(dp429
g124
F0.6
sg19
V(0.6, schema:deathDate)
p430
sg23
g326
sbag0
(g138
g2
Ntp431
Rp432
(dp433
g124
F0.8
sg19
V(0.8, schema:deathDate)
p434
sg23
g326
sbag0
(g312
g2
Ntp435
Rp436
(dp437
g18
I-1384017720
sg19
V(Exists, schema:deathDate)
p438
sg23
g326
sbasg23
g326
sg189
V(schema:deathDate: ShortString)
p439
sg191
I01
sg192
g193
sbasS'_variables'
p440
(lp441
g10
ag196
ag319
ag0
(cdedupe.variables.base
MissingDataType
p442
g2
Ntp443
Rp444
(dp445
g189
V((schema:birthDate: ShortString): Not Missing)
p446
sg191
I00
sbag0
(g442
g2
Ntp447
Rp448
(dp449
g189
V((schema:deathDate: ShortString): Not Missing)
p450
sg191
I00
sbasS'_missing_field_indices'
p451
(lp452
I1
aI2
asS'_derived_start'
p453
I3
sS'_interaction_indices'
p454
(lp455
sb.ccopy_reg
_reconstructor
p0
(crlr.lr
RegularizedLogisticRegression
p1
c__builtin__
object
p2
Ntp3
Rp4
(dp5
S'alpha'
p6
I1
sS'bias'
p7
cnumpy.core.multiarray
scalar
p8
(cnumpy
dtype
p9
(S'f8'
p10
I0
I1
tp11
Rp12
(I3
S'<'
p13
NNNI-1
I-1
I0
tp14
bS'\xd7S\xe5X/\x8a$@'
p15
tp16
Rp17
sS'num_cores'
p18
I0
sS'cv'
p19
I10
sS'weights'
p20
cnumpy.core.multiarray
_reconstruct
p21
(cnumpy
ndarray
p22
(I0
tp23
S'b'
p24
tp25
Rp26
(I1
(I5
tp27
g12
I00
S'U;Fq\xbb\xd3\xfc\xbf`JLZ\xf8\xc3\xf1?h\x87\x9f\xdf\xa5]\xef\xbfs\xf0^\xbe\x0cP\xe5?\x1e\xca\tqv\xb2\xd2\xbe'
p28
tp29
bsb.(ccopy_reg
_reconstructor
p0
(cdedupe.predicates
CompoundPredicate
p1
c__builtin__
tuple
p2
(g0
(cdedupe.predicates
StringPredicate
p3
c__builtin__
object
p4
Ntp5
Rp6
(dp7
S'_cached_hash'
p8
I-1629246092
sS'__name__'
p9
V(oneGramFingerprint, schema:birthDate)
p10
sS'func'
p11
cdedupe.predicates
oneGramFingerprint
p12
sS'field'
p13
Vschema:birthDate
p14
sbg0
(g3
g4
Ntp15
Rp16
(dp17
g8
I-818824554
sg9
V(sameSevenCharStartPredicate, schema:birthDate)
p18
sg11
cdedupe.predicates
sameSevenCharStartPredicate
p19
sg13
g14
sbtp20
tp21
Rp22
g0
(g1
g2
(g0
(g3
g4
Ntp23
Rp24
(dp25
g8
I-1449687020
sg9
V(commonThreeTokens, schema:name)
p26
sg11
cdedupe.predicates
commonThreeTokens
p27
sg13
Vschema:name
p28
sbg0
(cdedupe.predicates
TfidfNGramSearchPredicate
p29
g4
Ntp30
Rp31
(dp32
S'threshold'
p33
F0.2
sg9
V(0.2, schema:birthDate)
p34
sg13
g14
sbtp35
tp36
Rp37
g0
(g1
g2
(g0
(g3
g4
Ntp38
Rp39
(dp40
g8
I1098681744
sg9
V(commonTwoTokens, schema:name)
p41
sg11
cdedupe.predicates
commonTwoTokens
p42
sg13
g28
sbg0
(g3
g4
Ntp43
Rp44
(dp45
g8
I311237470
sg9
V(suffixArray, schema:birthDate)
p46
sg11
cdedupe.predicates
suffixArray
p47
sg13
g14
sbtp48
tp49
Rp50
g0
(g1
g2
(g0
(g3
g4
Ntp51
Rp52
(dp53
g8
I-2029605906
sg9
V(metaphoneToken, schema:name)
p54
sg11
cdedupe.predicates
metaphoneToken
p55
sg13
g28
sbg0
(g3
g4
Ntp56
Rp57
(dp58
g8
I1483596350
sg9
V(sameFiveCharStartPredicate, schema:birthDate)
p59
sg11
cdedupe.predicates
sameFiveCharStartPredicate
p60
sg13
g14
sbtp61
tp62
Rp63
g0
(g1
g2
(g0
(g3
g4
Ntp64
Rp65
(dp66
g8
I-987703697
sg9
V(sortedAcronym, schema:deathDate)
p67
sg11
cdedupe.predicates
sortedAcronym
p68
sg13
Vschema:deathDate
p69
sbg0
(cdedupe.predicates
TfidfTextSearchPredicate
p70
g4
Ntp71
Rp72
(dp73
g33
F0.2
sg9
V(0.2, schema:name)
p74
sg13
g28
sbtp75
tp76
Rp77
g0
(g1
g2
(g57
g0
(g29
g4
Ntp78
Rp79
(dp80
g33
F0.6
sg9
V(0.6, schema:birthDate)
p81
sg13
g14
sbtp82
tp83
Rp84
g0
(g1
g2
(g57
g0
(g29
g4
Ntp85
Rp86
(dp87
g33
F0.2
sg9
V(0.2, schema:deathDate)
p88
sg13
g69
sbtp89
tp90
Rp91
tp92
.